; Function Attrs: mustprogress uwtable
define dso_local void @_ZN11V3LinkCells4linkEP10AstNetlistP9VInFilterP10V3ParseSym(ptr noundef %0, ptr noundef %1, ptr noundef %2) #3 align 2 personality ptr @__gxx_personality_v0 {
  %4 = alloca %"class.std::__cxx11::basic_string", align 8
  %5 = alloca %class.LinkCellsVisitor, align 8
  %6 = tail call noundef i32 @_ZL5debugv()
  %7 = icmp sgt i32 %6, 3
  br i1 %7, label %8, label %20

8:                                                ; preds = %3
  %9 = tail call noundef nonnull align 8 dereferenceable(8) ptr @_ZStlsISt11char_traitsIcEERSt13basic_ostreamIcT_ES5_PKc(ptr noundef nonnull align 8 dereferenceable(8) @_ZSt4cout, ptr noundef nonnull @.str.4)
  call void @_ZN7V3Error7lineStrB5cxx11EPKci(ptr dead_on_unwind nonnull writable sret(%"class.std::__cxx11::basic_string") align 8 %4, ptr noundef nonnull @.str.2, i32 noundef 555)
  %10 = invoke noundef nonnull align 8 dereferenceable(8) ptr @_ZStlsIcSt11char_traitsIcESaIcEERSt13basic_ostreamIT_T0_ES7_RKNSt7__cxx1112basic_stringIS4_S5_T1_EE(ptr noundef nonnull align 8 dereferenceable(8) %9, ptr noundef nonnull align 8 dereferenceable(32) %4)
          to label %11 unwind label %18

11:                                               ; preds = %8
  %12 = invoke noundef nonnull align 8 dereferenceable(8) ptr @_ZStlsISt11char_traitsIcEERSt13basic_ostreamIcT_ES5_PKc(ptr noundef nonnull align 8 dereferenceable(8) %10, ptr noundef nonnull @__FUNCTION__._ZN11V3LinkCells4linkEP10AstNetlistP9VInFilterP10V3ParseSym)
          to label %13 unwind label %18

13:                                               ; preds = %11
  %14 = invoke noundef nonnull align 8 dereferenceable(8) ptr @_ZStlsISt11char_traitsIcEERSt13basic_ostreamIcT_ES5_PKc(ptr noundef nonnull align 8 dereferenceable(8) %12, ptr noundef nonnull @.str.5)
          to label %15 unwind label %18

15:                                               ; preds = %13
  %16 = invoke noundef nonnull align 8 dereferenceable(8) ptr @_ZNSolsEPFRSoS_E(ptr noundef nonnull align 8 dereferenceable(8) %14, ptr noundef nonnull @_ZSt4endlIcSt11char_traitsIcEERSt13basic_ostreamIT_T0_ES6_)
          to label %17 unwind label %18

17:                                               ; preds = %15
  call void @_ZNSt7__cxx1112basic_stringIcSt11char_traitsIcESaIcEED1Ev(ptr noundef nonnull align 8 dereferenceable(32) %4) #21
  br label %20

18:                                               ; preds = %15, %13, %11, %8
  %19 = landingpad { ptr, i32 }
          cleanup
  call void @_ZNSt7__cxx1112basic_stringIcSt11char_traitsIcESaIcEED1Ev(ptr noundef nonnull align 8 dereferenceable(32) %4) #21
  resume { ptr, i32 } %19

20:                                               ; preds = %3, %17
  call void @_ZN16LinkCellsVisitorC2EP10AstNetlistP9VInFilterP10V3ParseSym(ptr noundef nonnull align 8 dereferenceable(232) %5, ptr noundef %0, ptr noundef %1, ptr noundef %2)
  call void @_ZN16LinkCellsVisitorD2Ev(ptr noundef nonnull align 8 dereferenceable(232) %5) #21
  ret void
}